target datalayout = "e-m:e-p270:32:32-p271:32:32-p272:64:64-i64:64-i128:128-f80:128-n8:16:32:64-S128"
target triple = "x86_64-pc-linux-gnu"

%class.btBU_Simplex1to4 = type { %class.btPolyhedralConvexAabbCachingShape.base, i32, [4 x %class.btVector3] }
%class.btPolyhedralConvexAabbCachingShape.base = type <{ %class.btPolyhedralConvexShape, %class.btVector3, %class.btVector3, i8 }>
%class.btPolyhedralConvexShape = type { %class.btConvexInternalShape, ptr }
%class.btConvexInternalShape = type { %class.btConvexShape, %class.btVector3, %class.btVector3, float, float }
%class.btConvexShape = type { %class.btCollisionShape }
%class.btCollisionShape = type { ptr, i32, ptr, i32, i32 }
%class.btVector3 = type { [4 x float] }

; Function Attrs: mustprogress uwtable
define dso_local void @_ZN16btBU_Simplex1to49addVertexERK9btVector3(ptr noundef nonnull align 8 dereferenceable(184) %0, ptr noundef nonnull align 4 dereferenceable(16) %1) #2 align 2 {
  %3 = alloca ptr, align 8
  %4 = alloca ptr, align 8
  store ptr %0, ptr %3, align 8, !tbaa !12
  store ptr %1, ptr %4, align 8, !tbaa !28
  %5 = load ptr, ptr %3, align 8
  %6 = load ptr, ptr %4, align 8, !tbaa !28
  %7 = getelementptr inbounds nuw %class.btBU_Simplex1to4, ptr %5, i32 0, i32 2
  %8 = getelementptr inbounds nuw %class.btBU_Simplex1to4, ptr %5, i32 0, i32 1
  %9 = load i32, ptr %8, align 4, !tbaa !16
  %10 = add nsw i32 %9, 1
  store i32 %10, ptr %8, align 4, !tbaa !16
  %11 = sext i32 %9 to i64
  %12 = getelementptr inbounds [4 x %class.btVector3], ptr %7, i64 0, i64 %11
  call void @llvm.memcpy.p0.p0.i64(ptr align 8 %12, ptr align 4 %6, i64 16, i1 false), !tbaa.struct !30
  call void @_ZN34btPolyhedralConvexAabbCachingShape15recalcLocalAabbEv(ptr noundef nonnull align 8 dereferenceable(113) %5)
  ret void
}

; Function Attrs: inlinehint mustprogress nounwind uwtable
define linkonce_odr dso_local void @_ZN9btVector3C2Ev(ptr noundef nonnull align 4 dereferenceable(16) %0) unnamed_addr #4 comdat align 2 {
  %2 = alloca ptr, align 8
  store ptr %0, ptr %2, align 8, !tbaa !28
  ret void
}

; Function Attrs: mustprogress uwtable
define dso_local void @_ZN16btBU_Simplex1to4C2ERK9btVector3S2_S2_(ptr noundef nonnull align 8 dereferenceable(184) %0, ptr noundef nonnull align 4 dereferenceable(16) %1, ptr noundef nonnull align 4 dereferenceable(16) %2, ptr noundef nonnull align 4 dereferenceable(16) %3) unnamed_addr #2 align 2 personality ptr @__gxx_personality_v0 {
  %5 = alloca ptr, align 8
  %6 = alloca ptr, align 8
  %7 = alloca ptr, align 8
  %8 = alloca ptr, align 8
  %9 = alloca ptr, align 8
  %10 = alloca i32, align 4
  store ptr %0, ptr %5, align 8, !tbaa !12
  store ptr %1, ptr %6, align 8, !tbaa !28
  store ptr %2, ptr %7, align 8, !tbaa !28
  store ptr %3, ptr %8, align 8, !tbaa !28
  %11 = load ptr, ptr %5, align 8
  call void @_ZN34btPolyhedralConvexAabbCachingShapeC2Ev(ptr noundef nonnull align 8 dereferenceable(113) %11)
  store ptr getelementptr inbounds inrange(-16, 264) ({ [35 x ptr] }, ptr @_ZTV16btBU_Simplex1to4, i32 0, i32 0, i32 2), ptr %11, align 8, !tbaa !14
  %12 = getelementptr inbounds nuw %class.btBU_Simplex1to4, ptr %11, i32 0, i32 1
  store i32 0, ptr %12, align 4, !tbaa !16
  %13 = getelementptr inbounds nuw %class.btBU_Simplex1to4, ptr %11, i32 0, i32 2
  %14 = getelementptr inbounds [4 x %class.btVector3], ptr %13, i32 0, i32 0
  %15 = getelementptr inbounds %class.btVector3, ptr %14, i64 4
  br label %16

16:                                               ; preds = %18, %4
  %17 = phi ptr [ %14, %4 ], [ %19, %18 ]
  invoke void @_ZN9btVector3C2Ev(ptr noundef nonnull align 4 dereferenceable(16) %17)
          to label %18 unwind label %29

18:                                               ; preds = %16
  %19 = getelementptr inbounds %class.btVector3, ptr %17, i64 1
  %20 = icmp eq ptr %19, %15
  br i1 %20, label %21, label %16

21:                                               ; preds = %18
  %22 = getelementptr inbounds nuw %class.btCollisionShape, ptr %11, i32 0, i32 1
  store i32 2, ptr %22, align 8, !tbaa !27
  %23 = load ptr, ptr %6, align 8, !tbaa !28
  invoke void @_ZN16btBU_Simplex1to49addVertexERK9btVector3(ptr noundef nonnull align 8 dereferenceable(184) %11, ptr noundef nonnull align 4 dereferenceable(16) %23)
          to label %24 unwind label %29

24:                                               ; preds = %21
  %25 = load ptr, ptr %7, align 8, !tbaa !28
  invoke void @_ZN16btBU_Simplex1to49addVertexERK9btVector3(ptr noundef nonnull align 8 dereferenceable(184) %11, ptr noundef nonnull align 4 dereferenceable(16) %25)
          to label %26 unwind label %29

26:                                               ; preds = %24
  %27 = load ptr, ptr %8, align 8, !tbaa !28
  invoke void @_ZN16btBU_Simplex1to49addVertexERK9btVector3(ptr noundef nonnull align 8 dereferenceable(184) %11, ptr noundef nonnull align 4 dereferenceable(16) %27)
          to label %28 unwind label %29

28:                                               ; preds = %26
  ret void

29:                                               ; preds = %26, %24, %21, %16
  %30 = landingpad { ptr, i32 }
          cleanup
  %31 = extractvalue { ptr, i32 } %30, 0
  store ptr %31, ptr %9, align 8
  %32 = extractvalue { ptr, i32 } %30, 1
  store i32 %32, ptr %10, align 4
  call void @_ZN23btPolyhedralConvexShapeD2Ev(ptr noundef nonnull align 8 dereferenceable(113) %11) #10
  br label %33

33:                                               ; preds = %29
  %34 = load ptr, ptr %9, align 8
  %35 = load i32, ptr %10, align 4
  %36 = insertvalue { ptr, i32 } poison, ptr %34, 0
  %37 = insertvalue { ptr, i32 } %36, i32 %35, 1
  resume { ptr, i32 } %37
}