; Function Attrs: mustprogress uwtable
define dso_local void @_ZN16btBU_Simplex1to4C2ERK9btVector3S2_S2_(ptr noundef nonnull align 8 dereferenceable(184) %0, ptr noundef nonnull readonly align 4 captures(none) dereferenceable(16) %1, ptr noundef nonnull readonly align 4 captures(none) dereferenceable(16) %2, ptr noundef nonnull readonly align 4 captures(none) dereferenceable(16) %3) unnamed_addr #0 align 2 personality ptr @__gxx_personality_v0 {
  tail call void @_ZN34btPolyhedralConvexAabbCachingShapeC2Ev(ptr noundef nonnull align 8 dereferenceable(113) %0)
  store ptr getelementptr inbounds nuw inrange(-16, 264) (i8, ptr @_ZTV16btBU_Simplex1to4, i64 16), ptr %0, align 8, !tbaa !4
  %5 = getelementptr inbounds nuw i8, ptr %0, i64 116
  %6 = getelementptr inbounds nuw i8, ptr %0, i64 8
  store i32 2, ptr %6, align 8, !tbaa !21
  %7 = getelementptr inbounds nuw i8, ptr %0, i64 120
  store i32 1, ptr %5, align 4, !tbaa !7
  tail call void @llvm.memcpy.p0.p0.i64(ptr noundef nonnull align 8 dereferenceable(16) %7, ptr noundef nonnull readonly align 4 dereferenceable(16) %1, i64 16, i1 false), !tbaa.struct !22
  invoke void @_ZN34btPolyhedralConvexAabbCachingShape15recalcLocalAabbEv(ptr noundef nonnull align 8 dereferenceable(184) %0)
          to label %_ZN16btBU_Simplex1to49addVertexERK9btVector3.exit unwind label %16

_ZN16btBU_Simplex1to49addVertexERK9btVector3.exit: ; preds = %4
  %8 = load i32, ptr %5, align 4, !tbaa !7
  %9 = add nsw i32 %8, 1
  store i32 %9, ptr %5, align 4, !tbaa !7
  %10 = sext i32 %8 to i64
  %11 = getelementptr inbounds [4 x %class.btVector3], ptr %7, i64 0, i64 %10
  tail call void @llvm.memcpy.p0.p0.i64(ptr noundef nonnull align 8 dereferenceable(16) %11, ptr noundef nonnull readonly align 4 dereferenceable(16) %2, i64 16, i1 false), !tbaa.struct !22
  invoke void @_ZN34btPolyhedralConvexAabbCachingShape15recalcLocalAabbEv(ptr noundef nonnull align 8 dereferenceable(184) %0)
          to label %_ZN16btBU_Simplex1to49addVertexERK9btVector3.exit7 unwind label %16

_ZN16btBU_Simplex1to49addVertexERK9btVector3.exit7: ; preds = %_ZN16btBU_Simplex1to49addVertexERK9btVector3.exit
  %12 = load i32, ptr %5, align 4, !tbaa !7
  %13 = add nsw i32 %12, 1
  store i32 %13, ptr %5, align 4, !tbaa !7
  %14 = sext i32 %12 to i64
  %15 = getelementptr inbounds [4 x %class.btVector3], ptr %7, i64 0, i64 %14
  tail call void @llvm.memcpy.p0.p0.i64(ptr noundef nonnull align 8 dereferenceable(16) %15, ptr noundef nonnull readonly align 4 dereferenceable(16) %3, i64 16, i1 false), !tbaa.struct !22
  invoke void @_ZN34btPolyhedralConvexAabbCachingShape15recalcLocalAabbEv(ptr noundef nonnull align 8 dereferenceable(184) %0)
          to label %_ZN16btBU_Simplex1to49addVertexERK9btVector3.exit8 unwind label %16

_ZN16btBU_Simplex1to49addVertexERK9btVector3.exit8: ; preds = %_ZN16btBU_Simplex1to49addVertexERK9btVector3.exit7
  ret void

16:                                               ; preds = %_ZN16btBU_Simplex1to49addVertexERK9btVector3.exit7, %_ZN16btBU_Simplex1to49addVertexERK9btVector3.exit, %4
  %17 = landingpad { ptr, i32 }
          cleanup
  tail call void @_ZN23btPolyhedralConvexShapeD2Ev(ptr noundef nonnull align 8 dereferenceable(113) %0) #12
  resume { ptr, i32 } %17
}